target datalayout = "e-m:e-p270:32:32-p271:32:32-p272:64:64-i64:64-i128:128-f80:128-n8:16:32:64-S128"
target triple = "x86_64-pc-linux-gnu"

@.str.1 = private unnamed_addr constant [34 x i8] c"../openssl/crypto/conf/conf_mod.c\00", align 1
@.str.3 = private unnamed_addr constant [1 x i8] zeroinitializer, align 1
@.str.4 = private unnamed_addr constant [13 x i8] c"OPENSSL_CONF\00", align 1
@.str.5 = private unnamed_addr constant [2 x i8] c"/\00", align 1
@.str.6 = private unnamed_addr constant [7 x i8] c"%s%s%s\00", align 1
@.str.7 = private unnamed_addr constant [12 x i8] c"openssl.cnf\00", align 1

; Function Attrs: nounwind uwtable
define ptr @CONF_get1_default_config_file() #0 {
  %1 = alloca ptr, align 8
  %2 = alloca ptr, align 8
  %3 = alloca ptr, align 8
  %4 = alloca ptr, align 8
  %5 = alloca i64, align 8
  %6 = alloca i32, align 4
  call void @llvm.lifetime.start.p0(i64 8, ptr %2) #6
  call void @llvm.lifetime.start.p0(i64 8, ptr %3) #6
  call void @llvm.lifetime.start.p0(i64 8, ptr %4) #6
  store ptr @.str.3, ptr %4, align 8, !tbaa !8
  call void @llvm.lifetime.start.p0(i64 8, ptr %5) #6
  %7 = call ptr @ossl_safe_getenv(ptr noundef @.str.4)
  store ptr %7, ptr %3, align 8, !tbaa !8
  %8 = icmp ne ptr %7, null
  br i1 %8, label %9, label %12

9:                                                ; preds = %0
  %10 = load ptr, ptr %3, align 8, !tbaa !8
  %11 = call noalias ptr @CRYPTO_strdup(ptr noundef %10, ptr noundef @.str.1, i32 noundef 692)
  store ptr %11, ptr %1, align 8
  store i32 1, ptr %6, align 4
  br label %38

12:                                               ; preds = %0
  %13 = call ptr @X509_get_default_cert_area()
  store ptr %13, ptr %2, align 8, !tbaa !8
  %14 = load ptr, ptr %2, align 8, !tbaa !8
  %15 = icmp eq ptr %14, null
  br i1 %15, label %16, label %18

16:                                               ; preds = %12
  %17 = call noalias ptr @CRYPTO_strdup(ptr noundef @.str.3, ptr noundef @.str.1, i32 noundef 705)
  store ptr %17, ptr %1, align 8
  store i32 1, ptr %6, align 4
  br label %38

18:                                               ; preds = %12
  store ptr @.str.5, ptr %4, align 8, !tbaa !8
  %19 = load ptr, ptr %2, align 8, !tbaa !8
  %20 = call i64 @strlen(ptr noundef %19) #7
  %21 = load ptr, ptr %4, align 8, !tbaa !8
  %22 = call i64 @strlen(ptr noundef %21) #7
  %23 = add i64 %20, %22
  %24 = add i64 %23, 11
  %25 = add i64 %24, 1
  store i64 %25, ptr %5, align 8, !tbaa !10
  %26 = load i64, ptr %5, align 8, !tbaa !10
  %27 = call noalias ptr @CRYPTO_malloc(i64 noundef %26, ptr noundef @.str.1, i32 noundef 711)
  store ptr %27, ptr %3, align 8, !tbaa !8
  %28 = load ptr, ptr %3, align 8, !tbaa !8
  %29 = icmp eq ptr %28, null
  br i1 %29, label %30, label %31

30:                                               ; preds = %18
  store ptr null, ptr %1, align 8
  store i32 1, ptr %6, align 4
  br label %38

31:                                               ; preds = %18
  %32 = load ptr, ptr %3, align 8, !tbaa !8
  %33 = load i64, ptr %5, align 8, !tbaa !10
  %34 = load ptr, ptr %2, align 8, !tbaa !8
  %35 = load ptr, ptr %4, align 8, !tbaa !8
  %36 = call i32 (ptr, i64, ptr, ...) @BIO_snprintf(ptr noundef %32, i64 noundef %33, ptr noundef @.str.6, ptr noundef %34, ptr noundef %35, ptr noundef @.str.7)
  %37 = load ptr, ptr %3, align 8, !tbaa !8
  store ptr %37, ptr %1, align 8
  store i32 1, ptr %6, align 4
  br label %38

38:                                               ; preds = %31, %30, %16, %9
  call void @llvm.lifetime.end.p0(i64 8, ptr %5) #6
  call void @llvm.lifetime.end.p0(i64 8, ptr %4) #6
  call void @llvm.lifetime.end.p0(i64 8, ptr %3) #6
  call void @llvm.lifetime.end.p0(i64 8, ptr %2) #6
  %39 = load ptr, ptr %1, align 8
  ret ptr %39
}