; Function Attrs: nounwind uwtable
define ptr @CONF_get1_default_config_file() local_unnamed_addr #0 {
  %1 = tail call ptr @ossl_safe_getenv(ptr noundef nonnull @.str.4) #7
  %.not = icmp eq ptr %1, null
  br i1 %.not, label %4, label %2

2:                                                ; preds = %0
  %3 = tail call noalias ptr @CRYPTO_strdup(ptr noundef nonnull %1, ptr noundef nonnull @.str.1, i32 noundef 692) #7
  br label %16

4:                                                ; preds = %0
  %5 = tail call ptr @X509_get_default_cert_area() #7
  %6 = icmp eq ptr %5, null
  br i1 %6, label %7, label %9

7:                                                ; preds = %4
  %8 = tail call noalias ptr @CRYPTO_strdup(ptr noundef nonnull @.str.3, ptr noundef nonnull @.str.1, i32 noundef 705) #7
  br label %16

9:                                                ; preds = %4
  %10 = tail call i64 @strlen(ptr noundef nonnull dereferenceable(1) %5) #8
  %11 = add i64 %10, 13
  %12 = tail call noalias ptr @CRYPTO_malloc(i64 noundef %11, ptr noundef nonnull @.str.1, i32 noundef 711) #7
  %13 = icmp eq ptr %12, null
  br i1 %13, label %16, label %14

14:                                               ; preds = %9
  %15 = tail call i32 (ptr, i64, ptr, ...) @BIO_snprintf(ptr noundef nonnull %12, i64 noundef %11, ptr noundef nonnull @.str.6, ptr noundef nonnull %5, ptr noundef nonnull @.str.5, ptr noundef nonnull @.str.7) #7
  br label %16

16:                                               ; preds = %9, %14, %7, %2
  %.0 = phi ptr [ %3, %2 ], [ %8, %7 ], [ %12, %14 ], [ null, %9 ]
  ret ptr %.0
}